#include <math.h>
#include <stdio.h>
#include <stdlib.h>
#include <string.h>

int f(int n)
{
    int i=2,k=0;
    for(i=2;i<n;i++)
    {  
      if(n%i==0)
      {
      k++;
      }
      }
      if(k==0)
      return (0);
      else
      return (1);
    
}      
int main()
{
    int n,i,sum=0,t;
    scanf("%d",&n);
    if(n<5)
    printf("empty\n");
    else 
    {
    for(i=5;i<=n;i++)
    {
         t=i-2; 
      if(f(i)==0&&f(t)==0)
      {
         //t=i-2;                   
         printf("%d %d\n",t,i);
         sum++; 
      }
    }
    
    if(sum==0)
    printf("empty\n");
    }
    getchar();
    getchar();
}
